; Function Attrs: mustprogress null_pointer_is_valid sspstrong uwtable
define void @_ZN14SyntaxLineEdit13setStyleSheetERK7QString(ptr noundef align 8 dereferenceable_or_null(185) %0, ptr noundef align 8 dereferenceable(24) %1) local_unnamed_addr #0 align 2 personality ptr @__gxx_personality_v0 {
  %3 = alloca %class.QString, align 8
  %4 = getelementptr inbounds nuw i8, ptr %0, i64 64
  %5 = tail call noundef align 8 dereferenceable(24) ptr @_ZN7QStringaSERKS_(ptr noundef nonnull align 8 dereferenceable_or_null(24) %4, ptr noundef align 8 dereferenceable(24) %1) #19
  call void @llvm.lifetime.start.p0(i64 24, ptr nonnull %3) #19
  %6 = getelementptr inbounds nuw i8, ptr %0, i64 88
  tail call void @llvm.experimental.noalias.scope.decl(metadata !9)
  %7 = load ptr, ptr %4, align 8, !noalias !9
  store ptr %7, ptr %3, align 8, !alias.scope !9
  %8 = getelementptr inbounds nuw i8, ptr %3, i64 8
  %9 = getelementptr inbounds nuw i8, ptr %0, i64 72
  %10 = load ptr, ptr %9, align 8, !noalias !9
  store ptr %10, ptr %8, align 8, !alias.scope !9
  %11 = getelementptr inbounds nuw i8, ptr %3, i64 16
  %12 = getelementptr inbounds nuw i8, ptr %0, i64 80
  %13 = load i64, ptr %12, align 8, !noalias !9
  store i64 %13, ptr %11, align 8, !alias.scope !9
  %.not.i.i.i.i = icmp eq ptr %7, null
  br i1 %.not.i.i.i.i, label %_ZN7QStringC2ERKS_.exit.i, label %14

14:                                               ; preds = %2
  %15 = atomicrmw add ptr %7, i32 1 seq_cst, align 4, !noalias !9
  br label %_ZN7QStringC2ERKS_.exit.i

_ZN7QStringC2ERKS_.exit.i:                        ; preds = %14, %2
  %16 = invoke noundef align 8 dereferenceable(24) ptr @_ZN7QString6appendERKS_(ptr noundef nonnull align 8 dereferenceable_or_null(24) %3, ptr noundef nonnull align 8 dereferenceable(24) %6)
          to label %_ZplRK7QStringS1_.exit unwind label %17

17:                                               ; preds = %_ZN7QStringC2ERKS_.exit.i
  %18 = landingpad { ptr, i32 }
          cleanup
  %19 = load ptr, ptr %3, align 8
  %.not.i.i.i7 = icmp eq ptr %19, null
  br i1 %.not.i.i.i7, label %common.resume, label %_ZN17QArrayDataPointerIDsE5derefEv.exit.i.i8

_ZN17QArrayDataPointerIDsE5derefEv.exit.i.i8:     ; preds = %17
  %20 = atomicrmw sub ptr %19, i32 1 seq_cst, align 4
  %.not.i.i9 = icmp eq i32 %20, 1
  br i1 %.not.i.i9, label %21, label %common.resume

21:                                               ; preds = %_ZN17QArrayDataPointerIDsE5derefEv.exit.i.i8
  %22 = load ptr, ptr %3, align 8
  call void @_ZN10QArrayData10deallocateEPS_xx(ptr noundef %22, i64 noundef 2, i64 noundef 8) #19
  br label %common.resume

common.resume:                                    ; preds = %21, %_ZN17QArrayDataPointerIDsE5derefEv.exit.i.i8, %17, %_ZN7QStringD2Ev.exit6
  %common.resume.op = phi { ptr, i32 } [ %29, %_ZN7QStringD2Ev.exit6 ], [ %18, %17 ], [ %18, %_ZN17QArrayDataPointerIDsE5derefEv.exit.i.i8 ], [ %18, %21 ]
  resume { ptr, i32 } %common.resume.op

_ZplRK7QStringS1_.exit:                           ; preds = %_ZN7QStringC2ERKS_.exit.i
  invoke void @_ZN7QWidget13setStyleSheetERK7QString(ptr noundef align 8 dereferenceable_or_null(40) %0, ptr noundef nonnull align 8 dereferenceable(24) %3)
          to label %23 unwind label %28

23:                                               ; preds = %_ZplRK7QStringS1_.exit
  %24 = load ptr, ptr %3, align 8
  %.not.i.i.i = icmp eq ptr %24, null
  br i1 %.not.i.i.i, label %_ZN7QStringD2Ev.exit, label %_ZN17QArrayDataPointerIDsE5derefEv.exit.i.i

_ZN17QArrayDataPointerIDsE5derefEv.exit.i.i:      ; preds = %23
  %25 = atomicrmw sub ptr %24, i32 1 seq_cst, align 4
  %.not.i.i = icmp eq i32 %25, 1
  br i1 %.not.i.i, label %26, label %_ZN7QStringD2Ev.exit

26:                                               ; preds = %_ZN17QArrayDataPointerIDsE5derefEv.exit.i.i
  %27 = load ptr, ptr %3, align 8
  call void @_ZN10QArrayData10deallocateEPS_xx(ptr noundef %27, i64 noundef 2, i64 noundef 8) #19
  br label %_ZN7QStringD2Ev.exit

_ZN7QStringD2Ev.exit:                             ; preds = %23, %_ZN17QArrayDataPointerIDsE5derefEv.exit.i.i, %26
  call void @llvm.lifetime.end.p0(i64 24, ptr nonnull %3) #19
  ret void

28:                                               ; preds = %_ZplRK7QStringS1_.exit
  %29 = landingpad { ptr, i32 }
          cleanup
  %30 = load ptr, ptr %3, align 8
  %.not.i.i.i3 = icmp eq ptr %30, null
  br i1 %.not.i.i.i3, label %_ZN7QStringD2Ev.exit6, label %_ZN17QArrayDataPointerIDsE5derefEv.exit.i.i4

_ZN17QArrayDataPointerIDsE5derefEv.exit.i.i4:     ; preds = %28
  %31 = atomicrmw sub ptr %30, i32 1 seq_cst, align 4
  %.not.i.i5 = icmp eq i32 %31, 1
  br i1 %.not.i.i5, label %32, label %_ZN7QStringD2Ev.exit6

32:                                               ; preds = %_ZN17QArrayDataPointerIDsE5derefEv.exit.i.i4
  %33 = load ptr, ptr %3, align 8
  call void @_ZN10QArrayData10deallocateEPS_xx(ptr noundef %33, i64 noundef 2, i64 noundef 8) #19
  br label %_ZN7QStringD2Ev.exit6

_ZN7QStringD2Ev.exit6:                            ; preds = %28, %_ZN17QArrayDataPointerIDsE5derefEv.exit.i.i4, %32
  call void @llvm.lifetime.end.p0(i64 24, ptr nonnull %3) #19
  br label %common.resume
}